target datalayout = "e-m:e-p270:32:32-p271:32:32-p272:64:64-i64:64-i128:128-f80:128-n8:16:32:64-S128"
target triple = "x86_64-pc-linux-gnu"

%struct.FindOnePhysicalCameraByCallbackData = type { ptr, ptr, ptr }

; Function Attrs: nounwind uwtable
define internal zeroext i1 @FindOnePhysicalCameraByCallback(ptr noundef %0, ptr noundef %1, ptr noundef %2, ptr noundef %3) #0 {
  %5 = alloca i1, align 1
  %6 = alloca ptr, align 8
  %7 = alloca ptr, align 8
  %8 = alloca ptr, align 8
  %9 = alloca ptr, align 8
  %10 = alloca ptr, align 8
  %11 = alloca ptr, align 8
  %12 = alloca i32, align 4
  store ptr %0, ptr %6, align 8
  store ptr %1, ptr %7, align 8
  store ptr %2, ptr %8, align 8
  store ptr %3, ptr %9, align 8
  call void @llvm.lifetime.start.p0(i64 8, ptr %10) #7
  %13 = load ptr, ptr %6, align 8
  store ptr %13, ptr %10, align 8
  call void @llvm.lifetime.start.p0(i64 8, ptr %11) #7
  %14 = load ptr, ptr %9, align 8
  store ptr %14, ptr %11, align 8
  %15 = load ptr, ptr %10, align 8
  %16 = getelementptr inbounds nuw %struct.FindOnePhysicalCameraByCallbackData, ptr %15, i32 0, i32 0
  %17 = load ptr, ptr %16, align 8
  %18 = load ptr, ptr %11, align 8
  %19 = load ptr, ptr %10, align 8
  %20 = getelementptr inbounds nuw %struct.FindOnePhysicalCameraByCallbackData, ptr %19, i32 0, i32 1
  %21 = load ptr, ptr %20, align 8
  %22 = call zeroext i1 %17(ptr noundef %18, ptr noundef %21)
  br i1 %22, label %23, label %27

23:                                               ; preds = %4
  %24 = load ptr, ptr %11, align 8
  %25 = load ptr, ptr %10, align 8
  %26 = getelementptr inbounds nuw %struct.FindOnePhysicalCameraByCallbackData, ptr %25, i32 0, i32 2
  store ptr %24, ptr %26, align 8
  store i1 false, ptr %5, align 1
  store i32 1, ptr %12, align 4
  br label %28

27:                                               ; preds = %4
  store i1 true, ptr %5, align 1
  store i32 1, ptr %12, align 4
  br label %28

28:                                               ; preds = %27, %23
  call void @llvm.lifetime.end.p0(i64 8, ptr %11) #7
  call void @llvm.lifetime.end.p0(i64 8, ptr %10) #7
  %29 = load i1, ptr %5, align 1
  ret i1 %29
}