; Function Attrs: nounwind uwtable
define internal noundef zeroext i1 @FindOnePhysicalCameraByCallback(ptr noundef captures(none) %0, ptr readnone captures(none) %1, ptr readnone captures(none) %2, ptr noundef %3) #1 {
  %5 = load ptr, ptr %0, align 8
  %6 = getelementptr inbounds nuw i8, ptr %0, i64 8
  %7 = load ptr, ptr %6, align 8
  %8 = tail call zeroext i1 %5(ptr noundef %3, ptr noundef %7) #11
  br i1 %8, label %9, label %11

9:                                                ; preds = %4
  %10 = getelementptr inbounds nuw i8, ptr %0, i64 16
  store ptr %3, ptr %10, align 8
  br label %11

11:                                               ; preds = %4, %9
  %.0 = xor i1 %8, true
  ret i1 %.0
}